target datalayout = "e-m:e-p270:32:32-p271:32:32-p272:64:64-i64:64-i128:128-f80:128-n8:16:32:64-S128"
target triple = "x86_64-pc-linux-gnu"

@.str.4 = private unnamed_addr constant [5 x i8] c"%s%s\00", align 1
@.str.6 = private unnamed_addr constant [1 x i8] zeroinitializer, align 1
@.str.12 = private unnamed_addr constant [32 x i8] c"Write size exceeds SDL_SIZE_MAX\00", align 1
@.str.13 = private unnamed_addr constant [3 x i8] c"wb\00", align 1
@.str.14 = private unnamed_addr constant [62 x i8] c"Resulting file length did not exactly match the source length\00", align 1

; Function Attrs: nounwind uwtable
define internal ptr @GENERIC_INTERNAL_CreateFullPath(ptr noundef %0, ptr noundef %1) #0 {
  %3 = alloca ptr, align 8
  %4 = alloca ptr, align 8
  %5 = alloca ptr, align 8
  store ptr %0, ptr %3, align 8
  store ptr %1, ptr %4, align 8
  call void @llvm.lifetime.start.p0(i64 8, ptr %5) #3
  store ptr null, ptr %5, align 8
  %6 = load ptr, ptr %3, align 8
  %7 = icmp ne ptr %6, null
  br i1 %7, label %8, label %10

8:                                                ; preds = %2
  %9 = load ptr, ptr %3, align 8
  br label %11

10:                                               ; preds = %2
  br label %11

11:                                               ; preds = %10, %8
  %12 = phi ptr [ %9, %8 ], [ @.str.6, %10 ]
  %13 = load ptr, ptr %4, align 8
  %14 = call i32 (ptr, ptr, ...) @SDL_asprintf_REAL(ptr noundef %5, ptr noundef @.str.4, ptr noundef %12, ptr noundef %13)
  %15 = load ptr, ptr %5, align 8
  call void @llvm.lifetime.end.p0(i64 8, ptr %5) #3
  ret ptr %15
}

; Function Attrs: nounwind uwtable
define internal zeroext i1 @GENERIC_WriteStorageFile(ptr noundef %0, ptr noundef %1, ptr noundef %2, i64 noundef %3) #0 {
  %5 = alloca i1, align 1
  %6 = alloca ptr, align 8
  %7 = alloca ptr, align 8
  %8 = alloca ptr, align 8
  %9 = alloca i64, align 8
  %10 = alloca i8, align 1
  %11 = alloca i32, align 4
  %12 = alloca ptr, align 8
  %13 = alloca ptr, align 8
  store ptr %0, ptr %6, align 8
  store ptr %1, ptr %7, align 8
  store ptr %2, ptr %8, align 8
  store i64 %3, ptr %9, align 8
  call void @llvm.lifetime.start.p0(i64 1, ptr %10) #3
  store i8 0, ptr %10, align 1
  %14 = load i64, ptr %9, align 8
  %15 = icmp ugt i64 %14, -1
  br i1 %15, label %16, label %18

16:                                               ; preds = %4
  %17 = call zeroext i1 (ptr, ...) @SDL_SetError_REAL(ptr noundef @.str.12)
  store i1 %17, ptr %5, align 1
  store i32 1, ptr %11, align 4
  br label %47

18:                                               ; preds = %4
  call void @llvm.lifetime.start.p0(i64 8, ptr %12) #3
  %19 = load ptr, ptr %6, align 8
  %20 = load ptr, ptr %7, align 8
  %21 = call ptr @GENERIC_INTERNAL_CreateFullPath(ptr noundef %19, ptr noundef %20)
  store ptr %21, ptr %12, align 8
  %22 = load ptr, ptr %12, align 8
  %23 = icmp ne ptr %22, null
  br i1 %23, label %24, label %44

24:                                               ; preds = %18
  call void @llvm.lifetime.start.p0(i64 8, ptr %13) #3
  %25 = load ptr, ptr %12, align 8
  %26 = call ptr @SDL_IOFromFile_REAL(ptr noundef %25, ptr noundef @.str.13)
  store ptr %26, ptr %13, align 8
  %27 = load ptr, ptr %13, align 8
  %28 = icmp ne ptr %27, null
  br i1 %28, label %29, label %42

29:                                               ; preds = %24
  %30 = load ptr, ptr %13, align 8
  %31 = load ptr, ptr %8, align 8
  %32 = load i64, ptr %9, align 8
  %33 = call i64 @SDL_WriteIO_REAL(ptr noundef %30, ptr noundef %31, i64 noundef %32)
  %34 = load i64, ptr %9, align 8
  %35 = icmp eq i64 %33, %34
  br i1 %35, label %36, label %37

36:                                               ; preds = %29
  store i8 1, ptr %10, align 1
  br label %39

37:                                               ; preds = %29
  %38 = call zeroext i1 (ptr, ...) @SDL_SetError_REAL(ptr noundef @.str.14)
  br label %39

39:                                               ; preds = %37, %36
  %40 = load ptr, ptr %13, align 8
  %41 = call zeroext i1 @SDL_CloseIO_REAL(ptr noundef %40)
  br label %42

42:                                               ; preds = %39, %24
  %43 = load ptr, ptr %12, align 8
  call void @SDL_free_REAL(ptr noundef %43)
  call void @llvm.lifetime.end.p0(i64 8, ptr %13) #3
  br label %44

44:                                               ; preds = %42, %18
  %45 = load i8, ptr %10, align 1, !range !3, !noundef !4
  %46 = trunc i8 %45 to i1
  store i1 %46, ptr %5, align 1
  store i32 1, ptr %11, align 4
  call void @llvm.lifetime.end.p0(i64 8, ptr %12) #3
  br label %47

47:                                               ; preds = %44, %16
  call void @llvm.lifetime.end.p0(i64 1, ptr %10) #3
  %48 = load i1, ptr %5, align 1
  ret i1 %48
}