; Function Attrs: nounwind uwtable
define internal noundef zeroext i1 @GENERIC_WriteStorageFile(ptr noundef %0, ptr noundef %1, ptr noundef %2, i64 noundef %3) #0 {
  %5 = alloca ptr, align 8
  call void @llvm.lifetime.start.p0(i64 8, ptr nonnull %5) #4
  store ptr null, ptr %5, align 8
  %.not.i = icmp eq ptr %0, null
  %6 = select i1 %.not.i, ptr @.str.6, ptr %0
  %7 = call i32 (ptr, ptr, ...) @SDL_asprintf_REAL(ptr noundef nonnull %5, ptr noundef nonnull @.str.4, ptr noundef nonnull %6, ptr noundef %1) #4
  %8 = load ptr, ptr %5, align 8
  call void @llvm.lifetime.end.p0(i64 8, ptr nonnull %5) #4
  %.not = icmp eq ptr %8, null
  br i1 %.not, label %19, label %9

9:                                                ; preds = %4
  %10 = call ptr @SDL_IOFromFile_REAL(ptr noundef nonnull %8, ptr noundef nonnull @.str.13) #4
  %.not16 = icmp eq ptr %10, null
  br i1 %.not16, label %18, label %11

11:                                               ; preds = %9
  %12 = call i64 @SDL_WriteIO_REAL(ptr noundef nonnull %10, ptr noundef %2, i64 noundef %3) #4
  %13 = icmp eq i64 %12, %3
  br i1 %13, label %16, label %14

14:                                               ; preds = %11
  %15 = call zeroext i1 (ptr, ...) @SDL_SetError_REAL(ptr noundef nonnull @.str.14) #4
  br label %16

16:                                               ; preds = %11, %14
  %17 = call zeroext i1 @SDL_CloseIO_REAL(ptr noundef nonnull %10) #4
  br label %18

18:                                               ; preds = %16, %9
  %.1 = phi i1 [ %13, %16 ], [ false, %9 ]
  call void @SDL_free_REAL(ptr noundef nonnull %8) #4
  br label %19

19:                                               ; preds = %4, %18
  %.013 = phi i1 [ %.1, %18 ], [ false, %4 ]
  ret i1 %.013
}